; Function Attrs: nounwind uwtable
define ptr @l_Lean_Elab_isAutoBoundImplicitLocalException_x3f(ptr noundef %0) local_unnamed_addr #0 {
  %2 = ptrtoint ptr %0 to i64
  %3 = and i64 %2, 1
  %.not.i = icmp eq i64 %3, 0
  br i1 %.not.i, label %7, label %4

4:                                                ; preds = %1
  %5 = lshr i64 %2, 1
  %6 = trunc i64 %5 to i32
  br label %lean_obj_tag.exit

7:                                                ; preds = %1
  %8 = getelementptr i8, ptr %0, i64 4
  %.val.i = load i32, ptr %8, align 4
  %9 = lshr i32 %.val.i, 24
  br label %lean_obj_tag.exit

lean_obj_tag.exit:                                ; preds = %4, %7
  %.0.i14 = phi i32 [ %6, %4 ], [ %9, %7 ]
  %10 = icmp eq i32 %.0.i14, 0
  br i1 %10, label %35, label %11

11:                                               ; preds = %lean_obj_tag.exit
  %12 = getelementptr inbounds nuw i8, ptr %0, i64 8
  %13 = load ptr, ptr %12, align 8, !tbaa !4
  %14 = getelementptr inbounds nuw i8, ptr %0, i64 16
  %15 = load ptr, ptr %14, align 8, !tbaa !4
  %16 = load ptr, ptr @l_Lean_Elab_throwAutoBoundImplicitLocal___rarg___closed__3, align 8, !tbaa !4
  %17 = ptrtoint ptr %13 to i64
  %18 = and i64 %17, 1
  %19 = icmp ne i64 %18, 0
  %20 = ptrtoint ptr %16 to i64
  %21 = and i64 %20, 1
  %22 = icmp ne i64 %21, 0
  %or.cond = select i1 %19, i1 %22, i1 false
  br i1 %or.cond, label %23, label %lean_nat_eq.exit, !prof !14

23:                                               ; preds = %11
  %24 = icmp eq ptr %13, %16
  br i1 %24, label %26, label %35

lean_nat_eq.exit:                                 ; preds = %11
  %25 = tail call zeroext i1 @lean_nat_big_eq(ptr noundef %13, ptr noundef %16) #3
  br i1 %25, label %26, label %35

26:                                               ; preds = %23, %lean_nat_eq.exit
  %27 = load ptr, ptr @l_Lean_Elab_throwAutoBoundImplicitLocal___rarg___closed__2, align 8, !tbaa !4
  %28 = load ptr, ptr @l_Lean_Elab_isAutoBoundImplicitLocalException_x3f___closed__2, align 8, !tbaa !4
  %29 = tail call ptr @l_Lean_KVMap_getName(ptr noundef %15, ptr noundef %27, ptr noundef %28) #3
  tail call void @lean_inc_heartbeat() #3
  %30 = tail call noalias ptr @mi_malloc_small(i64 noundef 16) #3
  %31 = icmp eq ptr %30, null
  br i1 %31, label %32, label %lean_alloc_ctor.exit

32:                                               ; preds = %26
  tail call void @lean_internal_panic_out_of_memory() #4
  unreachable

lean_alloc_ctor.exit:                             ; preds = %26
  %33 = getelementptr inbounds nuw i8, ptr %30, i64 4
  store i32 1, ptr %30, align 4, !tbaa !8
  store i32 16842768, ptr %33, align 4
  %34 = getelementptr inbounds nuw i8, ptr %30, i64 8
  store ptr %29, ptr %34, align 8, !tbaa !4
  br label %35

35:                                               ; preds = %23, %lean_nat_eq.exit, %lean_obj_tag.exit, %lean_alloc_ctor.exit
  %.0 = phi ptr [ %30, %lean_alloc_ctor.exit ], [ inttoptr (i64 1 to ptr), %lean_obj_tag.exit ], [ inttoptr (i64 1 to ptr), %lean_nat_eq.exit ], [ inttoptr (i64 1 to ptr), %23 ]
  ret ptr %.0
}